target datalayout = "e-m:e-p270:32:32-p271:32:32-p272:64:64-i64:64-i128:128-f80:128-n8:16:32:64-S128"
target triple = "x86_64-pc-linux-gnu"

; Function Attrs: inlinehint mustprogress nounwind uwtable
define linkonce_odr dso_local noundef float @_ZN9Imath_3_25clampIfEET_S1_S1_S1_(float noundef %0, float noundef %1, float noundef %2) #10 comdat {
  %4 = alloca float, align 4
  %5 = alloca float, align 4
  %6 = alloca float, align 4
  store float %0, ptr %4, align 4, !tbaa !46
  store float %1, ptr %5, align 4, !tbaa !46
  store float %2, ptr %6, align 4, !tbaa !46
  %7 = load float, ptr %4, align 4, !tbaa !46
  %8 = load float, ptr %5, align 4, !tbaa !46
  %9 = fcmp olt float %7, %8
  br i1 %9, label %10, label %12

10:                                               ; preds = %3
  %11 = load float, ptr %5, align 4, !tbaa !46
  br label %22

12:                                               ; preds = %3
  %13 = load float, ptr %4, align 4, !tbaa !46
  %14 = load float, ptr %6, align 4, !tbaa !46
  %15 = fcmp ogt float %13, %14
  br i1 %15, label %16, label %18

16:                                               ; preds = %12
  %17 = load float, ptr %6, align 4, !tbaa !46
  br label %20

18:                                               ; preds = %12
  %19 = load float, ptr %4, align 4, !tbaa !46
  br label %20

20:                                               ; preds = %18, %16
  %21 = phi float [ %17, %16 ], [ %19, %18 ]
  br label %22

22:                                               ; preds = %20, %10
  %23 = phi float [ %11, %10 ], [ %21, %20 ]
  ret float %23
}

; Function Attrs: inlinehint mustprogress nounwind uwtable
define linkonce_odr dso_local noundef float @_ZSt3powff(float noundef %0, float noundef %1) #10 comdat {
  %3 = alloca float, align 4
  %4 = alloca float, align 4
  store float %0, ptr %3, align 4, !tbaa !46
  store float %1, ptr %4, align 4, !tbaa !46
  %5 = load float, ptr %3, align 4, !tbaa !46
  %6 = load float, ptr %4, align 4, !tbaa !46
  %7 = call float @powf(float noundef %5, float noundef %6) #3, !tbaa !13
  ret float %7
}

; Function Attrs: inlinehint mustprogress nounwind uwtable
define linkonce_odr dso_local noundef nonnull align 4 dereferenceable(4) ptr @_ZSt3maxIfERKT_S2_S2_(ptr noundef nonnull align 4 dereferenceable(4) %0, ptr noundef nonnull align 4 dereferenceable(4) %1) #10 comdat {
  %3 = alloca ptr, align 8
  %4 = alloca ptr, align 8
  %5 = alloca ptr, align 8
  store ptr %0, ptr %4, align 8, !tbaa !48
  store ptr %1, ptr %5, align 8, !tbaa !48
  %6 = load ptr, ptr %4, align 8, !tbaa !48
  %7 = load float, ptr %6, align 4, !tbaa !46
  %8 = load ptr, ptr %5, align 8, !tbaa !48
  %9 = load float, ptr %8, align 4, !tbaa !46
  %10 = fcmp olt float %7, %9
  br i1 %10, label %11, label %13

11:                                               ; preds = %2
  %12 = load ptr, ptr %5, align 8, !tbaa !48
  store ptr %12, ptr %3, align 8
  br label %15

13:                                               ; preds = %2
  %14 = load ptr, ptr %4, align 8, !tbaa !48
  store ptr %14, ptr %3, align 8
  br label %15

15:                                               ; preds = %13, %11
  %16 = load ptr, ptr %3, align 8
  ret ptr %16
}

; Function Attrs: mustprogress uwtable
define dso_local noundef zeroext i8 @_Z5gammaf(float noundef %0) #6 {
  %2 = alloca float, align 4
  %3 = alloca float, align 4
  store float %0, ptr %2, align 4, !tbaa !46
  call void @llvm.lifetime.start.p0(i64 4, ptr %3) #3
  store float 0.000000e+00, ptr %3, align 4, !tbaa !46
  %4 = call noundef nonnull align 4 dereferenceable(4) ptr @_ZSt3maxIfERKT_S2_S2_(ptr noundef nonnull align 4 dereferenceable(4) %3, ptr noundef nonnull align 4 dereferenceable(4) %2)
  %5 = load float, ptr %4, align 4, !tbaa !46
  %6 = fmul float 0x401638D500000000, %5
  %7 = call noundef float @_ZSt3powff(float noundef %6, float noundef 0x3FDD168720000000)
  %8 = fmul float %7, 0x40552A3D80000000
  store float %8, ptr %2, align 4, !tbaa !46
  call void @llvm.lifetime.end.p0(i64 4, ptr %3) #3
  %9 = load float, ptr %2, align 4, !tbaa !46
  %10 = call noundef float @_ZN9Imath_3_25clampIfEET_S1_S1_S1_(float noundef %9, float noundef 0.000000e+00, float noundef 2.550000e+02) #3
  %11 = fptoui float %10 to i8
  ret i8 %11
}