; Function Attrs: mustprogress nofree nounwind willreturn memory(write) uwtable
define dso_local noundef zeroext i8 @_Z5gammaf(float noundef %0) local_unnamed_addr #17 {
  %2 = fcmp ogt float %0, 0.000000e+00
  %.sroa.speculated = select i1 %2, float %0, float 0.000000e+00
  %3 = fmul float %.sroa.speculated, 0x401638D500000000
  %4 = tail call noundef float @powf(float noundef %3, float noundef 0x3FDD168720000000) #36, !tbaa !59
  %5 = fmul float %4, 0x40552A3D80000000
  %6 = fcmp olt float %5, 0.000000e+00
  %7 = fcmp ogt float %5, 2.550000e+02
  %8 = select i1 %7, float 2.550000e+02, float %5
  %9 = select i1 %6, float 0.000000e+00, float %8
  %10 = fptoui float %9 to i8
  ret i8 %10
}